target datalayout = "e-m:e-p270:32:32-p271:32:32-p272:64:64-i64:64-i128:128-f80:128-n8:16:32:64-S128"
target triple = "x86_64-pc-linux-gnu"

%struct.GISTBuildState = type { ptr, ptr, ptr, i64, i32, i64, i64, ptr, ptr, ptr, i32, ptr }
%struct.GISTSTATE = type { ptr, ptr, ptr, ptr, ptr, [32 x %struct.FmgrInfo], [32 x %struct.FmgrInfo], [32 x %struct.FmgrInfo], [32 x %struct.FmgrInfo], [32 x %struct.FmgrInfo], [32 x %struct.FmgrInfo], [32 x %struct.FmgrInfo], [32 x %struct.FmgrInfo], [32 x %struct.FmgrInfo], [32 x i32] }
%struct.FmgrInfo = type { ptr, i32, i16, i8, i8, i8, ptr, ptr, ptr }

@CurrentMemoryContext = external global ptr, align 8

; Function Attrs: inlinehint nounwind uwtable
define internal ptr @MemoryContextSwitchTo(ptr noundef %0) #4 {
  %2 = alloca ptr, align 8
  %3 = alloca ptr, align 8
  store ptr %0, ptr %2, align 8
  call void @llvm.lifetime.start.p0(i64 8, ptr %3) #10
  %4 = load ptr, ptr @CurrentMemoryContext, align 8
  store ptr %4, ptr %3, align 8
  %5 = load ptr, ptr %2, align 8
  store ptr %5, ptr @CurrentMemoryContext, align 8
  %6 = load ptr, ptr %3, align 8
  call void @llvm.lifetime.end.p0(i64 8, ptr %3) #10
  ret ptr %6
}

; Function Attrs: nounwind uwtable
define internal void @gistSortedBuildCallback(ptr noundef %0, ptr noundef %1, ptr noundef %2, ptr noundef %3, i1 noundef zeroext %4, ptr noundef %5) #0 {
  %7 = alloca ptr, align 8
  %8 = alloca ptr, align 8
  %9 = alloca ptr, align 8
  %10 = alloca ptr, align 8
  %11 = alloca i8, align 1
  %12 = alloca ptr, align 8
  %13 = alloca ptr, align 8
  %14 = alloca ptr, align 8
  %15 = alloca [32 x i64], align 16
  store ptr %0, ptr %7, align 8
  store ptr %1, ptr %8, align 8
  store ptr %2, ptr %9, align 8
  store ptr %3, ptr %10, align 8
  %16 = zext i1 %4 to i8
  store i8 %16, ptr %11, align 1
  store ptr %5, ptr %12, align 8
  call void @llvm.lifetime.start.p0(i64 8, ptr %13) #10
  %17 = load ptr, ptr %12, align 8
  store ptr %17, ptr %13, align 8
  call void @llvm.lifetime.start.p0(i64 8, ptr %14) #10
  call void @llvm.lifetime.start.p0(i64 256, ptr %15) #10
  %18 = load ptr, ptr %13, align 8
  %19 = getelementptr inbounds nuw %struct.GISTBuildState, ptr %18, i32 0, i32 2
  %20 = load ptr, ptr %19, align 8
  %21 = getelementptr inbounds nuw %struct.GISTSTATE, ptr %20, i32 0, i32 1
  %22 = load ptr, ptr %21, align 8
  %23 = call ptr @MemoryContextSwitchTo(ptr noundef %22)
  store ptr %23, ptr %14, align 8
  %24 = load ptr, ptr %13, align 8
  %25 = getelementptr inbounds nuw %struct.GISTBuildState, ptr %24, i32 0, i32 2
  %26 = load ptr, ptr %25, align 8
  %27 = load ptr, ptr %7, align 8
  %28 = load ptr, ptr %9, align 8
  %29 = load ptr, ptr %10, align 8
  %30 = getelementptr inbounds [32 x i64], ptr %15, i64 0, i64 0
  call void @gistCompressValues(ptr noundef %26, ptr noundef %27, ptr noundef %28, ptr noundef %29, i1 noundef zeroext true, ptr noundef %30)
  %31 = load ptr, ptr %13, align 8
  %32 = getelementptr inbounds nuw %struct.GISTBuildState, ptr %31, i32 0, i32 9
  %33 = load ptr, ptr %32, align 8
  %34 = load ptr, ptr %13, align 8
  %35 = getelementptr inbounds nuw %struct.GISTBuildState, ptr %34, i32 0, i32 0
  %36 = load ptr, ptr %35, align 8
  %37 = load ptr, ptr %8, align 8
  %38 = getelementptr inbounds [32 x i64], ptr %15, i64 0, i64 0
  %39 = load ptr, ptr %10, align 8
  call void @tuplesort_putindextuplevalues(ptr noundef %33, ptr noundef %36, ptr noundef %37, ptr noundef %38, ptr noundef %39)
  %40 = load ptr, ptr %14, align 8
  %41 = call ptr @MemoryContextSwitchTo(ptr noundef %40)
  %42 = load ptr, ptr %13, align 8
  %43 = getelementptr inbounds nuw %struct.GISTBuildState, ptr %42, i32 0, i32 2
  %44 = load ptr, ptr %43, align 8
  %45 = getelementptr inbounds nuw %struct.GISTSTATE, ptr %44, i32 0, i32 1
  %46 = load ptr, ptr %45, align 8
  call void @MemoryContextReset(ptr noundef %46)
  %47 = load ptr, ptr %13, align 8
  %48 = getelementptr inbounds nuw %struct.GISTBuildState, ptr %47, i32 0, i32 5
  %49 = load i64, ptr %48, align 8
  %50 = add i64 %49, 1
  store i64 %50, ptr %48, align 8
  call void @llvm.lifetime.end.p0(i64 256, ptr %15) #10
  call void @llvm.lifetime.end.p0(i64 8, ptr %14) #10
  call void @llvm.lifetime.end.p0(i64 8, ptr %13) #10
  ret void
}