; Function Attrs: nounwind uwtable
define internal void @gistSortedBuildCallback(ptr noundef %0, ptr noundef %1, ptr noundef %2, ptr noundef %3, i1 zeroext %4, ptr noundef captures(none) %5) #0 {
  %7 = alloca [32 x i64], align 16
  call void @llvm.lifetime.start.p0(i64 256, ptr nonnull %7) #10
  %8 = getelementptr inbounds nuw i8, ptr %5, i64 16
  %9 = load ptr, ptr %8, align 8
  %10 = getelementptr inbounds nuw i8, ptr %9, i64 8
  %11 = load ptr, ptr %10, align 8
  %12 = load ptr, ptr @CurrentMemoryContext, align 8
  store ptr %11, ptr @CurrentMemoryContext, align 8
  call void @gistCompressValues(ptr noundef %9, ptr noundef %0, ptr noundef %2, ptr noundef %3, i1 noundef zeroext true, ptr noundef nonnull %7) #10
  %13 = getelementptr inbounds nuw i8, ptr %5, i64 72
  %14 = load ptr, ptr %13, align 8
  %15 = load ptr, ptr %5, align 8
  call void @tuplesort_putindextuplevalues(ptr noundef %14, ptr noundef %15, ptr noundef %1, ptr noundef nonnull %7, ptr noundef %3) #10
  store ptr %12, ptr @CurrentMemoryContext, align 8
  %16 = load ptr, ptr %8, align 8
  %17 = getelementptr inbounds nuw i8, ptr %16, i64 8
  %18 = load ptr, ptr %17, align 8
  call void @MemoryContextReset(ptr noundef %18) #10
  %19 = getelementptr inbounds nuw i8, ptr %5, i64 40
  %20 = load i64, ptr %19, align 8
  %21 = add i64 %20, 1
  store i64 %21, ptr %19, align 8
  call void @llvm.lifetime.end.p0(i64 256, ptr nonnull %7) #10
  ret void
}